target datalayout = "e-m:e-p270:32:32-p271:32:32-p272:64:64-i64:64-i128:128-f80:128-n8:16:32:64-S128"
target triple = "x86_64-pc-linux-gnu"

%struct.SwrContext = type { ptr, i32, ptr, i32, i32, i32, %struct.AVChannelLayout, %struct.AVChannelLayout, %struct.AVChannelLayout, i32, i32, i32, float, float, float, float, float, i32, ptr, i32, %struct.AVChannelLayout, %struct.AVChannelLayout, %struct.AVChannelLayout, i32, i32, %struct.DitherContext, i32, i32, i32, i32, double, i32, double, double, i32, float, float, float, float, float, i64, i32, i32, i32, %struct.AudioData, %struct.AudioData, %struct.AudioData, %struct.AudioData, %struct.AudioData, %struct.AudioData, %struct.AudioData, %struct.AudioData, i32, i32, i32, i32, i64, i64, i32, double, ptr, ptr, ptr, ptr, ptr, [64 x [64 x double]], [64 x [64 x float]], ptr, ptr, ptr, ptr, [64 x [64 x i32]], [64 x [65 x i8]], ptr, ptr, ptr, ptr, ptr }
%struct.AVChannelLayout = type { i32, i32, %union.anon, ptr }
%union.anon = type { i64 }
%struct.DitherContext = type { i32, i32, float, float, i32, float, float, i32, [20 x float], [64 x [40 x float]], %struct.AudioData, %struct.AudioData, i32 }
%struct.AudioData = type { [64 x ptr], ptr, i32, i32, i32, i32, i32 }

; Function Attrs: nounwind uwtable
define void @swri_noise_shaping_int16(ptr noundef %0, ptr noundef %1, ptr noundef %2, ptr noundef %3, i32 noundef %4) #0 {
  %6 = alloca ptr, align 8
  %7 = alloca ptr, align 8
  %8 = alloca ptr, align 8
  %9 = alloca ptr, align 8
  %10 = alloca i32, align 4
  %11 = alloca i32, align 4
  %12 = alloca i32, align 4
  %13 = alloca i32, align 4
  %14 = alloca i32, align 4
  %15 = alloca i32, align 4
  %16 = alloca float, align 4
  %17 = alloca float, align 4
  %18 = alloca ptr, align 8
  %19 = alloca ptr, align 8
  %20 = alloca ptr, align 8
  %21 = alloca ptr, align 8
  %22 = alloca ptr, align 8
  %23 = alloca double, align 8
  %24 = alloca double, align 8
  store ptr %0, ptr %6, align 8, !tbaa !4
  store ptr %1, ptr %7, align 8, !tbaa !51
  store ptr %2, ptr %8, align 8, !tbaa !51
  store ptr %3, ptr %9, align 8, !tbaa !51
  store i32 %4, ptr %10, align 4, !tbaa !10
  call void @llvm.lifetime.start.p0(i64 4, ptr %11) #7
  %25 = load ptr, ptr %6, align 8, !tbaa !4
  %26 = getelementptr inbounds nuw %struct.SwrContext, ptr %25, i32 0, i32 25
  %27 = getelementptr inbounds nuw %struct.DitherContext, ptr %26, i32 0, i32 7
  %28 = load i32, ptr %27, align 4, !tbaa !38
  store i32 %28, ptr %11, align 4, !tbaa !10
  call void @llvm.lifetime.start.p0(i64 4, ptr %12) #7
  call void @llvm.lifetime.start.p0(i64 4, ptr %13) #7
  call void @llvm.lifetime.start.p0(i64 4, ptr %14) #7
  call void @llvm.lifetime.start.p0(i64 4, ptr %15) #7
  %29 = load ptr, ptr %6, align 8, !tbaa !4
  %30 = getelementptr inbounds nuw %struct.SwrContext, ptr %29, i32 0, i32 25
  %31 = getelementptr inbounds nuw %struct.DitherContext, ptr %30, i32 0, i32 4
  %32 = load i32, ptr %31, align 8, !tbaa !47
  store i32 %32, ptr %15, align 4, !tbaa !10
  call void @llvm.lifetime.start.p0(i64 4, ptr %16) #7
  %33 = load ptr, ptr %6, align 8, !tbaa !4
  %34 = getelementptr inbounds nuw %struct.SwrContext, ptr %33, i32 0, i32 25
  %35 = getelementptr inbounds nuw %struct.DitherContext, ptr %34, i32 0, i32 5
  %36 = load float, ptr %35, align 4, !tbaa !39
  store float %36, ptr %16, align 4, !tbaa !34
  call void @llvm.lifetime.start.p0(i64 4, ptr %17) #7
  %37 = load ptr, ptr %6, align 8, !tbaa !4
  %38 = getelementptr inbounds nuw %struct.SwrContext, ptr %37, i32 0, i32 25
  %39 = getelementptr inbounds nuw %struct.DitherContext, ptr %38, i32 0, i32 6
  %40 = load float, ptr %39, align 8, !tbaa !40
  store float %40, ptr %17, align 4, !tbaa !34
  store i32 0, ptr %14, align 4, !tbaa !10
  br label %41

41:                                               ; preds = %260, %5
  %42 = load i32, ptr %14, align 4, !tbaa !10
  %43 = load ptr, ptr %8, align 8, !tbaa !51
  %44 = getelementptr inbounds nuw %struct.AudioData, ptr %43, i32 0, i32 2
  %45 = load i32, ptr %44, align 8, !tbaa !53
  %46 = icmp slt i32 %42, %45
  br i1 %46, label %47, label %263

47:                                               ; preds = %41
  call void @llvm.lifetime.start.p0(i64 8, ptr %18) #7
  %48 = load ptr, ptr %9, align 8, !tbaa !51
  %49 = getelementptr inbounds nuw %struct.AudioData, ptr %48, i32 0, i32 0
  %50 = load i32, ptr %14, align 4, !tbaa !10
  %51 = sext i32 %50 to i64
  %52 = getelementptr inbounds [64 x ptr], ptr %49, i64 0, i64 %51
  %53 = load ptr, ptr %52, align 8, !tbaa !54
  %54 = load ptr, ptr %6, align 8, !tbaa !4
  %55 = getelementptr inbounds nuw %struct.SwrContext, ptr %54, i32 0, i32 25
  %56 = getelementptr inbounds nuw %struct.DitherContext, ptr %55, i32 0, i32 1
  %57 = load i32, ptr %56, align 4, !tbaa !55
  %58 = sext i32 %57 to i64
  %59 = getelementptr inbounds float, ptr %53, i64 %58
  store ptr %59, ptr %18, align 8, !tbaa !56
  call void @llvm.lifetime.start.p0(i64 8, ptr %19) #7
  %60 = load ptr, ptr %8, align 8, !tbaa !51
  %61 = getelementptr inbounds nuw %struct.AudioData, ptr %60, i32 0, i32 0
  %62 = load i32, ptr %14, align 4, !tbaa !10
  %63 = sext i32 %62 to i64
  %64 = getelementptr inbounds [64 x ptr], ptr %61, i64 0, i64 %63
  %65 = load ptr, ptr %64, align 8, !tbaa !54
  store ptr %65, ptr %19, align 8, !tbaa !58
  call void @llvm.lifetime.start.p0(i64 8, ptr %20) #7
  %66 = load ptr, ptr %7, align 8, !tbaa !51
  %67 = getelementptr inbounds nuw %struct.AudioData, ptr %66, i32 0, i32 0
  %68 = load i32, ptr %14, align 4, !tbaa !10
  %69 = sext i32 %68 to i64
  %70 = getelementptr inbounds [64 x ptr], ptr %67, i64 0, i64 %69
  %71 = load ptr, ptr %70, align 8, !tbaa !54
  store ptr %71, ptr %20, align 8, !tbaa !58
  call void @llvm.lifetime.start.p0(i64 8, ptr %21) #7
  %72 = load ptr, ptr %6, align 8, !tbaa !4
  %73 = getelementptr inbounds nuw %struct.SwrContext, ptr %72, i32 0, i32 25
  %74 = getelementptr inbounds nuw %struct.DitherContext, ptr %73, i32 0, i32 9
  %75 = load i32, ptr %14, align 4, !tbaa !10
  %76 = sext i32 %75 to i64
  %77 = getelementptr inbounds [64 x [40 x float]], ptr %74, i64 0, i64 %76
  %78 = getelementptr inbounds [40 x float], ptr %77, i64 0, i64 0
  store ptr %78, ptr %21, align 8, !tbaa !56
  call void @llvm.lifetime.start.p0(i64 8, ptr %22) #7
  %79 = load ptr, ptr %6, align 8, !tbaa !4
  %80 = getelementptr inbounds nuw %struct.SwrContext, ptr %79, i32 0, i32 25
  %81 = getelementptr inbounds nuw %struct.DitherContext, ptr %80, i32 0, i32 8
  %82 = getelementptr inbounds [20 x float], ptr %81, i64 0, i64 0
  store ptr %82, ptr %22, align 8, !tbaa !56
  %83 = load ptr, ptr %6, align 8, !tbaa !4
  %84 = getelementptr inbounds nuw %struct.SwrContext, ptr %83, i32 0, i32 25
  %85 = getelementptr inbounds nuw %struct.DitherContext, ptr %84, i32 0, i32 7
  %86 = load i32, ptr %85, align 4, !tbaa !38
  store i32 %86, ptr %11, align 4, !tbaa !10
  store i32 0, ptr %12, align 4, !tbaa !10
  br label %87

87:                                               ; preds = %256, %47
  %88 = load i32, ptr %12, align 4, !tbaa !10
  %89 = load i32, ptr %10, align 4, !tbaa !10
  %90 = icmp slt i32 %88, %89
  br i1 %90, label %91, label %259

91:                                               ; preds = %87
  call void @llvm.lifetime.start.p0(i64 8, ptr %23) #7
  call void @llvm.lifetime.start.p0(i64 8, ptr %24) #7
  %92 = load ptr, ptr %19, align 8, !tbaa !58
  %93 = load i32, ptr %12, align 4, !tbaa !10
  %94 = sext i32 %93 to i64
  %95 = getelementptr inbounds i16, ptr %92, i64 %94
  %96 = load i16, ptr %95, align 2, !tbaa !32
  %97 = sext i16 %96 to i32
  %98 = sitofp i32 %97 to float
  %99 = load float, ptr %17, align 4, !tbaa !34
  %100 = fmul nsz float %98, %99
  %101 = fpext nsz float %100 to double
  store double %101, ptr %24, align 8, !tbaa !26
  store i32 0, ptr %13, align 4, !tbaa !10
  br label %102

102:                                              ; preds = %169, %91
  %103 = load i32, ptr %13, align 4, !tbaa !10
  %104 = load i32, ptr %15, align 4, !tbaa !10
  %105 = sub nsw i32 %104, 2
  %106 = icmp slt i32 %103, %105
  br i1 %106, label %107, label %172

107:                                              ; preds = %102
  %108 = load ptr, ptr %22, align 8, !tbaa !56
  %109 = load i32, ptr %13, align 4, !tbaa !10
  %110 = sext i32 %109 to i64
  %111 = getelementptr inbounds float, ptr %108, i64 %110
  %112 = load float, ptr %111, align 4, !tbaa !34
  %113 = load ptr, ptr %21, align 8, !tbaa !56
  %114 = load i32, ptr %11, align 4, !tbaa !10
  %115 = load i32, ptr %13, align 4, !tbaa !10
  %116 = add nsw i32 %114, %115
  %117 = sext i32 %116 to i64
  %118 = getelementptr inbounds float, ptr %113, i64 %117
  %119 = load float, ptr %118, align 4, !tbaa !34
  %120 = load ptr, ptr %22, align 8, !tbaa !56
  %121 = load i32, ptr %13, align 4, !tbaa !10
  %122 = add nsw i32 %121, 1
  %123 = sext i32 %122 to i64
  %124 = getelementptr inbounds float, ptr %120, i64 %123
  %125 = load float, ptr %124, align 4, !tbaa !34
  %126 = load ptr, ptr %21, align 8, !tbaa !56
  %127 = load i32, ptr %11, align 4, !tbaa !10
  %128 = load i32, ptr %13, align 4, !tbaa !10
  %129 = add nsw i32 %127, %128
  %130 = add nsw i32 %129, 1
  %131 = sext i32 %130 to i64
  %132 = getelementptr inbounds float, ptr %126, i64 %131
  %133 = load float, ptr %132, align 4, !tbaa !34
  %134 = fmul nsz float %125, %133
  %135 = call nsz float @llvm.fmuladd.f32(float %112, float %119, float %134)
  %136 = load ptr, ptr %22, align 8, !tbaa !56
  %137 = load i32, ptr %13, align 4, !tbaa !10
  %138 = add nsw i32 %137, 2
  %139 = sext i32 %138 to i64
  %140 = getelementptr inbounds float, ptr %136, i64 %139
  %141 = load float, ptr %140, align 4, !tbaa !34
  %142 = load ptr, ptr %21, align 8, !tbaa !56
  %143 = load i32, ptr %11, align 4, !tbaa !10
  %144 = load i32, ptr %13, align 4, !tbaa !10
  %145 = add nsw i32 %143, %144
  %146 = add nsw i32 %145, 2
  %147 = sext i32 %146 to i64
  %148 = getelementptr inbounds float, ptr %142, i64 %147
  %149 = load float, ptr %148, align 4, !tbaa !34
  %150 = call nsz float @llvm.fmuladd.f32(float %141, float %149, float %135)
  %151 = load ptr, ptr %22, align 8, !tbaa !56
  %152 = load i32, ptr %13, align 4, !tbaa !10
  %153 = add nsw i32 %152, 3
  %154 = sext i32 %153 to i64
  %155 = getelementptr inbounds float, ptr %151, i64 %154
  %156 = load float, ptr %155, align 4, !tbaa !34
  %157 = load ptr, ptr %21, align 8, !tbaa !56
  %158 = load i32, ptr %11, align 4, !tbaa !10
  %159 = load i32, ptr %13, align 4, !tbaa !10
  %160 = add nsw i32 %158, %159
  %161 = add nsw i32 %160, 3
  %162 = sext i32 %161 to i64
  %163 = getelementptr inbounds float, ptr %157, i64 %162
  %164 = load float, ptr %163, align 4, !tbaa !34
  %165 = call nsz float @llvm.fmuladd.f32(float %156, float %164, float %150)
  %166 = fpext nsz float %165 to double
  %167 = load double, ptr %24, align 8, !tbaa !26
  %168 = fsub nsz double %167, %166
  store double %168, ptr %24, align 8, !tbaa !26
  br label %169

169:                                              ; preds = %107
  %170 = load i32, ptr %13, align 4, !tbaa !10
  %171 = add nsw i32 %170, 4
  store i32 %171, ptr %13, align 4, !tbaa !10
  br label %102, !llvm.loop !60

172:                                              ; preds = %102
  %173 = load i32, ptr %13, align 4, !tbaa !10
  %174 = load i32, ptr %15, align 4, !tbaa !10
  %175 = icmp slt i32 %173, %174
  br i1 %175, label %176, label %193

176:                                              ; preds = %172
  %177 = load ptr, ptr %22, align 8, !tbaa !56
  %178 = load i32, ptr %13, align 4, !tbaa !10
  %179 = sext i32 %178 to i64
  %180 = getelementptr inbounds float, ptr %177, i64 %179
  %181 = load float, ptr %180, align 4, !tbaa !34
  %182 = load ptr, ptr %21, align 8, !tbaa !56
  %183 = load i32, ptr %11, align 4, !tbaa !10
  %184 = load i32, ptr %13, align 4, !tbaa !10
  %185 = add nsw i32 %183, %184
  %186 = sext i32 %185 to i64
  %187 = getelementptr inbounds float, ptr %182, i64 %186
  %188 = load float, ptr %187, align 4, !tbaa !34
  %189 = fmul nsz float %181, %188
  %190 = fpext nsz float %189 to double
  %191 = load double, ptr %24, align 8, !tbaa !26
  %192 = fsub nsz double %191, %190
  store double %192, ptr %24, align 8, !tbaa !26
  br label %193

193:                                              ; preds = %176, %172
  %194 = load i32, ptr %11, align 4, !tbaa !10
  %195 = icmp ne i32 %194, 0
  br i1 %195, label %196, label %199

196:                                              ; preds = %193
  %197 = load i32, ptr %11, align 4, !tbaa !10
  %198 = sub nsw i32 %197, 1
  br label %202

199:                                              ; preds = %193
  %200 = load i32, ptr %15, align 4, !tbaa !10
  %201 = sub nsw i32 %200, 1
  br label %202

202:                                              ; preds = %199, %196
  %203 = phi i32 [ %198, %196 ], [ %201, %199 ]
  store i32 %203, ptr %11, align 4, !tbaa !10
  %204 = load double, ptr %24, align 8, !tbaa !26
  %205 = load ptr, ptr %18, align 8, !tbaa !56
  %206 = load i32, ptr %12, align 4, !tbaa !10
  %207 = sext i32 %206 to i64
  %208 = getelementptr inbounds float, ptr %205, i64 %207
  %209 = load float, ptr %208, align 4, !tbaa !34
  %210 = fpext nsz float %209 to double
  %211 = fadd nsz double %204, %210
  %212 = call nsz double @llvm.rint.f64(double %211)
  store double %212, ptr %23, align 8, !tbaa !26
  %213 = load double, ptr %23, align 8, !tbaa !26
  %214 = load double, ptr %24, align 8, !tbaa !26
  %215 = fsub nsz double %213, %214
  %216 = fptrunc nsz double %215 to float
  %217 = load ptr, ptr %21, align 8, !tbaa !56
  %218 = load i32, ptr %11, align 4, !tbaa !10
  %219 = sext i32 %218 to i64
  %220 = getelementptr inbounds float, ptr %217, i64 %219
  store float %216, ptr %220, align 4, !tbaa !34
  %221 = load ptr, ptr %21, align 8, !tbaa !56
  %222 = load i32, ptr %11, align 4, !tbaa !10
  %223 = load i32, ptr %15, align 4, !tbaa !10
  %224 = add nsw i32 %222, %223
  %225 = sext i32 %224 to i64
  %226 = getelementptr inbounds float, ptr %221, i64 %225
  store float %216, ptr %226, align 4, !tbaa !34
  %227 = load float, ptr %16, align 4, !tbaa !34
  %228 = fpext nsz float %227 to double
  %229 = load double, ptr %23, align 8, !tbaa !26
  %230 = fmul nsz double %229, %228
  store double %230, ptr %23, align 8, !tbaa !26
  %231 = load double, ptr %23, align 8, !tbaa !26
  %232 = fcmp nsz ogt double %231, 3.276700e+04
  br i1 %232, label %233, label %234

233:                                              ; preds = %202
  br label %236

234:                                              ; preds = %202
  %235 = load double, ptr %23, align 8, !tbaa !26
  br label %236

236:                                              ; preds = %234, %233
  %237 = phi nsz double [ 3.276700e+04, %233 ], [ %235, %234 ]
  %238 = fcmp nsz ogt double %237, -3.276800e+04
  br i1 %238, label %239, label %247

239:                                              ; preds = %236
  %240 = load double, ptr %23, align 8, !tbaa !26
  %241 = fcmp nsz ogt double %240, 3.276700e+04
  br i1 %241, label %242, label %243

242:                                              ; preds = %239
  br label %245

243:                                              ; preds = %239
  %244 = load double, ptr %23, align 8, !tbaa !26
  br label %245

245:                                              ; preds = %243, %242
  %246 = phi nsz double [ 3.276700e+04, %242 ], [ %244, %243 ]
  br label %248

247:                                              ; preds = %236
  br label %248

248:                                              ; preds = %247, %245
  %249 = phi nsz double [ %246, %245 ], [ -3.276800e+04, %247 ]
  store double %249, ptr %23, align 8, !tbaa !26
  %250 = load double, ptr %23, align 8, !tbaa !26
  %251 = fptosi double %250 to i16
  %252 = load ptr, ptr %20, align 8, !tbaa !58
  %253 = load i32, ptr %12, align 4, !tbaa !10
  %254 = sext i32 %253 to i64
  %255 = getelementptr inbounds i16, ptr %252, i64 %254
  store i16 %251, ptr %255, align 2, !tbaa !32
  call void @llvm.lifetime.end.p0(i64 8, ptr %24) #7
  call void @llvm.lifetime.end.p0(i64 8, ptr %23) #7
  br label %256

256:                                              ; preds = %248
  %257 = load i32, ptr %12, align 4, !tbaa !10
  %258 = add nsw i32 %257, 1
  store i32 %258, ptr %12, align 4, !tbaa !10
  br label %87, !llvm.loop !61

259:                                              ; preds = %87
  call void @llvm.lifetime.end.p0(i64 8, ptr %22) #7
  call void @llvm.lifetime.end.p0(i64 8, ptr %21) #7
  call void @llvm.lifetime.end.p0(i64 8, ptr %20) #7
  call void @llvm.lifetime.end.p0(i64 8, ptr %19) #7
  call void @llvm.lifetime.end.p0(i64 8, ptr %18) #7
  br label %260

260:                                              ; preds = %259
  %261 = load i32, ptr %14, align 4, !tbaa !10
  %262 = add nsw i32 %261, 1
  store i32 %262, ptr %14, align 4, !tbaa !10
  br label %41, !llvm.loop !62

263:                                              ; preds = %41
  %264 = load i32, ptr %11, align 4, !tbaa !10
  %265 = load ptr, ptr %6, align 8, !tbaa !4
  %266 = getelementptr inbounds nuw %struct.SwrContext, ptr %265, i32 0, i32 25
  %267 = getelementptr inbounds nuw %struct.DitherContext, ptr %266, i32 0, i32 7
  store i32 %264, ptr %267, align 4, !tbaa !38
  call void @llvm.lifetime.end.p0(i64 4, ptr %17) #7
  call void @llvm.lifetime.end.p0(i64 4, ptr %16) #7
  call void @llvm.lifetime.end.p0(i64 4, ptr %15) #7
  call void @llvm.lifetime.end.p0(i64 4, ptr %14) #7
  call void @llvm.lifetime.end.p0(i64 4, ptr %13) #7
  call void @llvm.lifetime.end.p0(i64 4, ptr %12) #7
  call void @llvm.lifetime.end.p0(i64 4, ptr %11) #7
  ret void
}