; Function Attrs: nofree norecurse nosync nounwind memory(readwrite, inaccessiblemem: none) uwtable
define void @swri_noise_shaping_int16(ptr noundef captures(none) %0, ptr noundef readonly captures(none) %1, ptr noundef readonly captures(none) %2, ptr noundef readonly captures(none) %3, i32 noundef %4) local_unnamed_addr #6 {
  %6 = getelementptr inbounds nuw i8, ptr %0, i64 276
  %7 = load i32, ptr %6, align 4, !tbaa !33
  %8 = getelementptr inbounds nuw i8, ptr %0, i64 264
  %9 = load i32, ptr %8, align 8, !tbaa !42
  %10 = getelementptr inbounds nuw i8, ptr %0, i64 272
  %11 = load float, ptr %10, align 8, !tbaa !35
  %12 = getelementptr inbounds nuw i8, ptr %2, i64 520
  %13 = load i32, ptr %12, align 8, !tbaa !47
  %14 = icmp sgt i32 %13, 0
  br i1 %14, label %.lr.ph96, label %._crit_edge97

.lr.ph96:                                         ; preds = %5
  %15 = getelementptr inbounds nuw i8, ptr %0, i64 268
  %16 = load float, ptr %15, align 4, !tbaa !34
  %17 = getelementptr inbounds nuw i8, ptr %0, i64 252
  %18 = load i32, ptr %17, align 4, !tbaa !48
  %19 = sext i32 %18 to i64
  %20 = getelementptr inbounds nuw i8, ptr %0, i64 360
  %21 = getelementptr inbounds nuw i8, ptr %0, i64 280
  %22 = icmp sgt i32 %4, 0
  %23 = icmp sgt i32 %9, 2
  %24 = fpext nsz float %16 to double
  br i1 %22, label %.lr.ph91.us.preheader, label %._crit_edge97

.lr.ph91.us.preheader:                            ; preds = %.lr.ph96
  %25 = add nsw i32 %9, -2
  %26 = sext i32 %25 to i64
  %wide.trip.count109 = zext nneg i32 %13 to i64
  %wide.trip.count = zext nneg i32 %4 to i64
  br label %.lr.ph91.us

.lr.ph91.us:                                      ; preds = %.lr.ph91.us.preheader, %._crit_edge92.us
  %indvars.iv106 = phi i64 [ 0, %.lr.ph91.us.preheader ], [ %indvars.iv.next107, %._crit_edge92.us ]
  %27 = getelementptr inbounds nuw [64 x ptr], ptr %3, i64 0, i64 %indvars.iv106
  %28 = load ptr, ptr %27, align 8, !tbaa !49
  %29 = getelementptr inbounds float, ptr %28, i64 %19
  %30 = getelementptr inbounds nuw [64 x ptr], ptr %2, i64 0, i64 %indvars.iv106
  %31 = load ptr, ptr %30, align 8, !tbaa !49
  %32 = getelementptr inbounds nuw [64 x ptr], ptr %1, i64 0, i64 %indvars.iv106
  %33 = load ptr, ptr %32, align 8, !tbaa !49
  %34 = getelementptr inbounds nuw [64 x [40 x float]], ptr %20, i64 0, i64 %indvars.iv106
  br label %35

35:                                               ; preds = %.lr.ph91.us, %55
  %indvars.iv103 = phi i64 [ 0, %.lr.ph91.us ], [ %indvars.iv.next104, %55 ]
  %.18089.us = phi i32 [ %7, %.lr.ph91.us ], [ %56, %55 ]
  %36 = getelementptr inbounds nuw i16, ptr %31, i64 %indvars.iv103
  %37 = load i16, ptr %36, align 2, !tbaa !26
  %38 = sitofp i16 %37 to float
  %39 = fmul nsz float %11, %38
  %40 = fpext nsz float %39 to double
  br i1 %23, label %.lr.ph.us.preheader, label %._crit_edge.us

.lr.ph.us.preheader:                              ; preds = %35
  %41 = sext i32 %.18089.us to i64
  %invariant.gep = getelementptr float, ptr %34, i64 %41
  br label %.lr.ph.us

._crit_edge.us.loopexit:                          ; preds = %.lr.ph.us
  %42 = trunc nuw nsw i64 %indvars.iv.next to i32
  br label %._crit_edge.us

._crit_edge.us:                                   ; preds = %._crit_edge.us.loopexit, %35
  %.082.lcssa.us = phi i32 [ 0, %35 ], [ %42, %._crit_edge.us.loopexit ]
  %.0.lcssa.us = phi double [ %40, %35 ], [ %96, %._crit_edge.us.loopexit ]
  %43 = icmp slt i32 %.082.lcssa.us, %9
  br i1 %43, label %44, label %55

44:                                               ; preds = %._crit_edge.us
  %45 = zext nneg i32 %.082.lcssa.us to i64
  %46 = getelementptr inbounds nuw float, ptr %21, i64 %45
  %47 = load float, ptr %46, align 4, !tbaa !29
  %48 = add nsw i32 %.082.lcssa.us, %.18089.us
  %49 = sext i32 %48 to i64
  %50 = getelementptr inbounds float, ptr %34, i64 %49
  %51 = load float, ptr %50, align 4, !tbaa !29
  %52 = fmul nsz float %47, %51
  %53 = fpext nsz float %52 to double
  %54 = fsub nsz double %.0.lcssa.us, %53
  br label %55

55:                                               ; preds = %44, %._crit_edge.us
  %.1.us = phi nsz double [ %54, %44 ], [ %.0.lcssa.us, %._crit_edge.us ]
  %.not.us = icmp eq i32 %.18089.us, 0
  %.v.us = select i1 %.not.us, i32 %9, i32 %.18089.us
  %56 = add nsw i32 %.v.us, -1
  %57 = getelementptr inbounds nuw float, ptr %29, i64 %indvars.iv103
  %58 = load float, ptr %57, align 4, !tbaa !29
  %59 = fpext nsz float %58 to double
  %60 = fadd nsz double %.1.us, %59
  %61 = tail call nsz double @llvm.rint.f64(double %60)
  %62 = fsub nsz double %61, %.1.us
  %63 = fptrunc nsz double %62 to float
  %64 = sext i32 %56 to i64
  %65 = getelementptr inbounds float, ptr %34, i64 %64
  store float %63, ptr %65, align 4, !tbaa !29
  %66 = add nsw i32 %56, %9
  %67 = sext i32 %66 to i64
  %68 = getelementptr inbounds float, ptr %34, i64 %67
  store float %63, ptr %68, align 4, !tbaa !29
  %69 = fmul nsz double %61, %24
  %70 = fcmp nsz ogt double %69, 3.276700e+04
  %71 = select nsz i1 %70, double 3.276700e+04, double %69
  %72 = fcmp nsz ogt double %71, -3.276800e+04
  %73 = select i1 %72, double %71, double -3.276800e+04
  %74 = fptosi double %73 to i16
  %75 = getelementptr inbounds nuw i16, ptr %33, i64 %indvars.iv103
  store i16 %74, ptr %75, align 2, !tbaa !26
  %indvars.iv.next104 = add nuw nsw i64 %indvars.iv103, 1
  %exitcond.not = icmp eq i64 %indvars.iv.next104, %wide.trip.count
  br i1 %exitcond.not, label %._crit_edge92.us, label %35, !llvm.loop !50

.lr.ph.us:                                        ; preds = %.lr.ph.us.preheader, %.lr.ph.us
  %indvars.iv = phi i64 [ 0, %.lr.ph.us.preheader ], [ %indvars.iv.next, %.lr.ph.us ]
  %.086.us = phi double [ %40, %.lr.ph.us.preheader ], [ %96, %.lr.ph.us ]
  %76 = getelementptr inbounds nuw float, ptr %21, i64 %indvars.iv
  %77 = load float, ptr %76, align 4, !tbaa !29
  %gep = getelementptr float, ptr %invariant.gep, i64 %indvars.iv
  %78 = load float, ptr %gep, align 4, !tbaa !29
  %79 = getelementptr inbounds nuw i8, ptr %76, i64 4
  %80 = load float, ptr %79, align 4, !tbaa !29
  %81 = getelementptr i8, ptr %gep, i64 4
  %82 = load float, ptr %81, align 4, !tbaa !29
  %83 = fmul nsz float %80, %82
  %84 = tail call nsz float @llvm.fmuladd.f32(float %77, float %78, float %83)
  %85 = getelementptr inbounds nuw i8, ptr %76, i64 8
  %86 = load float, ptr %85, align 4, !tbaa !29
  %87 = getelementptr i8, ptr %gep, i64 8
  %88 = load float, ptr %87, align 4, !tbaa !29
  %89 = tail call nsz float @llvm.fmuladd.f32(float %86, float %88, float %84)
  %90 = getelementptr inbounds nuw i8, ptr %76, i64 12
  %91 = load float, ptr %90, align 4, !tbaa !29
  %92 = getelementptr i8, ptr %gep, i64 12
  %93 = load float, ptr %92, align 4, !tbaa !29
  %94 = tail call nsz float @llvm.fmuladd.f32(float %91, float %93, float %89)
  %95 = fpext nsz float %94 to double
  %96 = fsub nsz double %.086.us, %95
  %indvars.iv.next = add nuw nsw i64 %indvars.iv, 4
  %97 = icmp slt i64 %indvars.iv.next, %26
  br i1 %97, label %.lr.ph.us, label %._crit_edge.us.loopexit, !llvm.loop !51

._crit_edge92.us:                                 ; preds = %55
  %indvars.iv.next107 = add nuw nsw i64 %indvars.iv106, 1
  %exitcond110.not = icmp eq i64 %indvars.iv.next107, %wide.trip.count109
  br i1 %exitcond110.not, label %._crit_edge97, label %.lr.ph91.us, !llvm.loop !52

._crit_edge97:                                    ; preds = %._crit_edge92.us, %.lr.ph96, %5
  %.079.lcssa = phi i32 [ %7, %5 ], [ %7, %.lr.ph96 ], [ %56, %._crit_edge92.us ]
  store i32 %.079.lcssa, ptr %6, align 4, !tbaa !33
  ret void
}